target datalayout = "e-m:e-p270:32:32-p271:32:32-p272:64:64-i64:64-i128:128-f80:128-n8:16:32:64-S128"
target triple = "x86_64-pc-linux-gnu"

%class.MutableNUMASpace = type { %class.MutableSpace, ptr, i64, i32, i32, i8, i64 }
%class.MutableSpace = type { ptr, %class.MemRegion, i64, ptr, ptr, ptr }
%class.MemRegion = type { ptr, i64 }
%class.GrowableArrayView = type { %class.GrowableArrayBase, ptr }
%class.GrowableArrayBase = type { i32, i32 }
%"class.MutableNUMASpace::LGRPSpace" = type { i32, ptr, ptr, i8, %"struct.MutableNUMASpace::LGRPSpace::SpaceStats" }
%"struct.MutableNUMASpace::LGRPSpace::SpaceStats" = type { i64, i64, i64, i64 }
%class.anon = type { ptr }
%class.Thread = type { %class.ThreadShadow.base, i64, [43 x i64], ptr, ptr, i32, ptr, i64, i64, %class.ThreadLocalAllocBuffer, i64, %class.ThreadHeapSampler, %class.ThreadStatisticalInfo, %class.JfrThreadLocal, ptr, ptr, ptr, ptr, ptr, ptr, i64, i32, i32, ptr, i32, i32, i32, i32, i8, ptr }
%class.ThreadShadow.base = type <{ ptr, ptr, ptr, i32 }>
%class.ThreadLocalAllocBuffer = type <{ ptr, ptr, ptr, ptr, ptr, i64, i64, i64, i64, i32, i32, i32, i32, i64, %class.AdaptiveWeightedAverage, [4 x i8] }>
%class.AdaptiveWeightedAverage = type { float, i32, i32, i8, float }
%class.ThreadHeapSampler = type { i64 }
%class.ThreadStatisticalInfo = type { i64, i64 }
%class.JfrThreadLocal = type <{ ptr, ptr, ptr, ptr, ptr, ptr, ptr, ptr, ptr, ptr, %class.RefCountHandle, i64, i64, i64, i64, i64, i64, i64, i64, i64, i64, i64, i32, i32, i32, i16, i8, i8, i8, i8, i8, [5 x i8] }>
%class.RefCountHandle = type { ptr }

@g_assert_poison = external global ptr, align 8
@.str = private unnamed_addr constant [51 x i8] c"src/hotspot/share/gc/parallel/mutableNUMASpace.cpp\00", align 1
@.str.4 = private unnamed_addr constant [33 x i8] c"guarantee(thr != nullptr) failed\00", align 1
@.str.5 = private unnamed_addr constant [10 x i8] c"No thread\00", align 1

; Function Attrs: mustprogress nounwind uwtable
define linkonce_odr hidden noundef i32 @_Z12checked_castIjiET_T0_(i32 noundef %0) #1 comdat {
  %2 = alloca i32, align 4
  %3 = alloca i32, align 4
  store i32 %0, ptr %2, align 4
  %4 = load i32, ptr %2, align 4
  store i32 %4, ptr %3, align 4
  %5 = load i32, ptr %3, align 4
  ret i32 %5
}

; Function Attrs: mustprogress nounwind uwtable
define linkonce_odr hidden noundef i32 @_ZNK16MutableNUMASpace9LGRPSpace7lgrp_idEv(ptr noundef nonnull align 8 dereferenceable(64) %0) #1 comdat align 2 {
  %2 = alloca ptr, align 8
  store ptr %0, ptr %2, align 8
  %3 = load ptr, ptr %2, align 8
  %4 = getelementptr inbounds %"class.MutableNUMASpace::LGRPSpace", ptr %3, i32 0, i32 0
  %5 = load i32, ptr %4, align 8
  ret i32 %5
}

; Function Attrs: mustprogress nounwind uwtable
define internal noundef zeroext i1 @"_ZZNK16MutableNUMASpace16lgrp_space_indexEiENK3$_0clEPNS_9LGRPSpaceE"(ptr noundef nonnull align 8 dereferenceable(8) %0, ptr noundef %1) #1 align 2 {
  %3 = alloca ptr, align 8
  %4 = alloca ptr, align 8
  store ptr %0, ptr %3, align 8
  store ptr %1, ptr %4, align 8
  %5 = load ptr, ptr %3, align 8
  %6 = load ptr, ptr %4, align 8
  %7 = call noundef i32 @_ZNK16MutableNUMASpace9LGRPSpace7lgrp_idEv(ptr noundef nonnull align 8 dereferenceable(64) %6)
  %8 = getelementptr inbounds %class.anon, ptr %5, i32 0, i32 0
  %9 = load ptr, ptr %8, align 8
  %10 = load i32, ptr %9, align 4
  %11 = call noundef i32 @_Z12checked_castIjiET_T0_(i32 noundef %10)
  %12 = icmp eq i32 %7, %11
  ret i1 %12
}

; Function Attrs: mustprogress nounwind uwtable
define internal noundef i32 @"_ZNK17GrowableArrayViewIPN16MutableNUMASpace9LGRPSpaceEE7find_ifIZNKS0_16lgrp_space_indexEiE3$_0EEiT_"(ptr noundef nonnull align 8 dereferenceable(16) %0, ptr %1) #1 align 2 {
  %3 = alloca i32, align 4
  %4 = alloca %class.anon, align 8
  %5 = alloca ptr, align 8
  %6 = alloca i32, align 4
  %7 = getelementptr inbounds %class.anon, ptr %4, i32 0, i32 0
  store ptr %1, ptr %7, align 8
  store ptr %0, ptr %5, align 8
  %8 = load ptr, ptr %5, align 8
  store i32 0, ptr %6, align 4
  br label %9

9:                                                ; preds = %25, %2
  %10 = load i32, ptr %6, align 4
  %11 = getelementptr inbounds %class.GrowableArrayBase, ptr %8, i32 0, i32 0
  %12 = load i32, ptr %11, align 8
  %13 = icmp slt i32 %10, %12
  br i1 %13, label %14, label %28

14:                                               ; preds = %9
  %15 = getelementptr inbounds %class.GrowableArrayView, ptr %8, i32 0, i32 1
  %16 = load ptr, ptr %15, align 8
  %17 = load i32, ptr %6, align 4
  %18 = sext i32 %17 to i64
  %19 = getelementptr inbounds ptr, ptr %16, i64 %18
  %20 = load ptr, ptr %19, align 8
  %21 = call noundef zeroext i1 @"_ZZNK16MutableNUMASpace16lgrp_space_indexEiENK3$_0clEPNS_9LGRPSpaceE"(ptr noundef nonnull align 8 dereferenceable(8) %4, ptr noundef %20)
  br i1 %21, label %22, label %24

22:                                               ; preds = %14
  %23 = load i32, ptr %6, align 4
  store i32 %23, ptr %3, align 4
  br label %29

24:                                               ; preds = %14
  br label %25

25:                                               ; preds = %24
  %26 = load i32, ptr %6, align 4
  %27 = add nsw i32 %26, 1
  store i32 %27, ptr %6, align 4
  br label %9, !llvm.loop !13

28:                                               ; preds = %9
  store i32 -1, ptr %3, align 4
  br label %29

29:                                               ; preds = %28, %22
  %30 = load i32, ptr %3, align 4
  ret i32 %30
}

; Function Attrs: mustprogress nounwind uwtable
define linkonce_odr hidden noundef ptr @_ZNK16MutableNUMASpace9LGRPSpace5spaceEv(ptr noundef nonnull align 8 dereferenceable(64) %0) #1 comdat align 2 {
  %2 = alloca ptr, align 8
  store ptr %0, ptr %2, align 8
  %3 = load ptr, ptr %2, align 8
  %4 = getelementptr inbounds %"class.MutableNUMASpace::LGRPSpace", ptr %3, i32 0, i32 1
  %5 = load ptr, ptr %4, align 8
  ret ptr %5
}

; Function Attrs: mustprogress nounwind uwtable
define linkonce_odr hidden noundef nonnull align 8 dereferenceable(8) ptr @_ZN17GrowableArrayViewIPN16MutableNUMASpace9LGRPSpaceEE2atEi(ptr noundef nonnull align 8 dereferenceable(16) %0, i32 noundef %1) #1 comdat align 2 {
  %3 = alloca ptr, align 8
  %4 = alloca i32, align 4
  store ptr %0, ptr %3, align 8
  store i32 %1, ptr %4, align 4
  %5 = load ptr, ptr %3, align 8
  %6 = getelementptr inbounds %class.GrowableArrayView, ptr %5, i32 0, i32 1
  %7 = load ptr, ptr %6, align 8
  %8 = load i32, ptr %4, align 4
  %9 = sext i32 %8 to i64
  %10 = getelementptr inbounds ptr, ptr %7, i64 %9
  ret ptr %10
}

; Function Attrs: mustprogress nounwind uwtable
define hidden noundef i32 @_ZNK16MutableNUMASpace16lgrp_space_indexEi(ptr noundef nonnull align 8 dereferenceable(96) %0, i32 noundef %1) #1 align 2 {
  %3 = alloca ptr, align 8
  %4 = alloca i32, align 4
  %5 = alloca %class.anon, align 8
  store ptr %0, ptr %3, align 8
  store i32 %1, ptr %4, align 4
  %6 = load ptr, ptr %3, align 8
  %7 = call noundef ptr @_ZNK16MutableNUMASpace11lgrp_spacesEv(ptr noundef nonnull align 8 dereferenceable(96) %6)
  %8 = getelementptr inbounds %class.anon, ptr %5, i32 0, i32 0
  store ptr %4, ptr %8, align 8
  %9 = getelementptr inbounds %class.anon, ptr %5, i32 0, i32 0
  %10 = load ptr, ptr %9, align 8
  %11 = call noundef i32 @"_ZNK17GrowableArrayViewIPN16MutableNUMASpace9LGRPSpaceEE7find_ifIZNKS0_16lgrp_space_indexEiE3$_0EEiT_"(ptr noundef nonnull align 8 dereferenceable(16) %7, ptr %10)
  ret i32 %11
}

; Function Attrs: mustprogress nounwind uwtable
define linkonce_odr hidden noundef i64 @_ZNK12MutableSpace13used_in_bytesEv(ptr noundef nonnull align 8 dereferenceable(56) %0) #1 comdat align 2 {
  %2 = alloca ptr, align 8
  store ptr %0, ptr %2, align 8
  %3 = load ptr, ptr %2, align 8
  %4 = load ptr, ptr %3, align 8
  %5 = getelementptr inbounds ptr, ptr %4, i64 10
  %6 = load ptr, ptr %5, align 8
  %7 = call noundef i64 %6(ptr noundef nonnull align 8 dereferenceable(56) %3)
  %8 = mul i64 %7, 8
  ret i64 %8
}

; Function Attrs: mustprogress nounwind uwtable
define linkonce_odr hidden noundef i32 @_ZNK17GrowableArrayBase6lengthEv(ptr noundef nonnull align 4 dereferenceable(8) %0) #1 comdat align 2 {
  %2 = alloca ptr, align 8
  store ptr %0, ptr %2, align 8
  %3 = load ptr, ptr %2, align 8
  %4 = getelementptr inbounds %class.GrowableArrayBase, ptr %3, i32 0, i32 0
  %5 = load i32, ptr %4, align 4
  ret i32 %5
}

; Function Attrs: mustprogress nounwind uwtable
define linkonce_odr hidden noundef ptr @_ZNK16MutableNUMASpace11lgrp_spacesEv(ptr noundef nonnull align 8 dereferenceable(96) %0) #1 comdat align 2 {
  %2 = alloca ptr, align 8
  store ptr %0, ptr %2, align 8
  %3 = load ptr, ptr %2, align 8
  %4 = getelementptr inbounds %class.MutableNUMASpace, ptr %3, i32 0, i32 1
  %5 = load ptr, ptr %4, align 8
  ret ptr %5
}

; Function Attrs: mustprogress nounwind uwtable
define linkonce_odr hidden noundef i32 @_ZNK6Thread7lgrp_idEv(ptr noundef nonnull align 8 dereferenceable(888) %0) #1 comdat align 2 {
  %2 = alloca ptr, align 8
  store ptr %0, ptr %2, align 8
  %3 = load ptr, ptr %2, align 8
  %4 = getelementptr inbounds %class.Thread, ptr %3, i32 0, i32 21
  %5 = load i32, ptr %4, align 8
  ret i32 %5
}

; Function Attrs: mustprogress nounwind uwtable
define hidden noundef i64 @_ZNK16MutableNUMASpace9tlab_usedEP6Thread(ptr noundef nonnull align 8 dereferenceable(96) %0, ptr noundef %1) unnamed_addr #1 align 2 {
  %3 = alloca i64, align 8
  %4 = alloca ptr, align 8
  %5 = alloca ptr, align 8
  %6 = alloca i32, align 4
  %7 = alloca i32, align 4
  store ptr %0, ptr %4, align 8
  store ptr %1, ptr %5, align 8
  %8 = load ptr, ptr %4, align 8
  br label %9

9:                                                ; preds = %2
  %10 = load ptr, ptr %5, align 8
  %11 = icmp ne ptr %10, null
  br i1 %11, label %14, label %12

12:                                               ; preds = %9
  %13 = load ptr, ptr @g_assert_poison, align 8
  store i8 88, ptr %13, align 1
  call void (ptr, i32, ptr, ptr, ...) @_Z15report_vm_errorPKciS0_S0_z(ptr noundef @.str, i32 noundef 163, ptr noundef @.str.4, ptr noundef @.str.5) #8
  unreachable

14:                                               ; preds = %9
  br label %15

15:                                               ; preds = %14
  %16 = load ptr, ptr %5, align 8
  %17 = call noundef i32 @_ZNK6Thread7lgrp_idEv(ptr noundef nonnull align 8 dereferenceable(888) %16)
  store i32 %17, ptr %6, align 4
  %18 = load i32, ptr %6, align 4
  %19 = icmp eq i32 %18, -1
  br i1 %19, label %20, label %31

20:                                               ; preds = %15
  %21 = call noundef ptr @_ZNK16MutableNUMASpace11lgrp_spacesEv(ptr noundef nonnull align 8 dereferenceable(96) %8)
  %22 = call noundef i32 @_ZNK17GrowableArrayBase6lengthEv(ptr noundef nonnull align 4 dereferenceable(8) %21)
  %23 = icmp sgt i32 %22, 0
  br i1 %23, label %24, label %30

24:                                               ; preds = %20
  %25 = call noundef i64 @_ZNK12MutableSpace13used_in_bytesEv(ptr noundef nonnull align 8 dereferenceable(56) %8)
  %26 = call noundef ptr @_ZNK16MutableNUMASpace11lgrp_spacesEv(ptr noundef nonnull align 8 dereferenceable(96) %8)
  %27 = call noundef i32 @_ZNK17GrowableArrayBase6lengthEv(ptr noundef nonnull align 4 dereferenceable(8) %26)
  %28 = sext i32 %27 to i64
  %29 = udiv i64 %25, %28
  store i64 %29, ptr %3, align 8
  br label %44

30:                                               ; preds = %20
  store i64 0, ptr %3, align 8
  br label %44

31:                                               ; preds = %15
  %32 = load i32, ptr %6, align 4
  %33 = call noundef i32 @_ZNK16MutableNUMASpace16lgrp_space_indexEi(ptr noundef nonnull align 8 dereferenceable(96) %8, i32 noundef %32)
  store i32 %33, ptr %7, align 4
  %34 = load i32, ptr %7, align 4
  %35 = icmp eq i32 %34, -1
  br i1 %35, label %36, label %37

36:                                               ; preds = %31
  store i64 0, ptr %3, align 8
  br label %44

37:                                               ; preds = %31
  %38 = call noundef ptr @_ZNK16MutableNUMASpace11lgrp_spacesEv(ptr noundef nonnull align 8 dereferenceable(96) %8)
  %39 = load i32, ptr %7, align 4
  %40 = call noundef nonnull align 8 dereferenceable(8) ptr @_ZN17GrowableArrayViewIPN16MutableNUMASpace9LGRPSpaceEE2atEi(ptr noundef nonnull align 8 dereferenceable(16) %38, i32 noundef %39)
  %41 = load ptr, ptr %40, align 8
  %42 = call noundef ptr @_ZNK16MutableNUMASpace9LGRPSpace5spaceEv(ptr noundef nonnull align 8 dereferenceable(64) %41)
  %43 = call noundef i64 @_ZNK12MutableSpace13used_in_bytesEv(ptr noundef nonnull align 8 dereferenceable(56) %42)
  store i64 %43, ptr %3, align 8
  br label %44

44:                                               ; preds = %37, %36, %30, %24
  %45 = load i64, ptr %3, align 8
  ret i64 %45
}