; Function Attrs: mustprogress nounwind uwtable
define hidden noundef i64 @_ZNK16MutableNUMASpace9tlab_usedEP6Thread(ptr noundef nonnull align 8 dereferenceable(96) %0, ptr noundef readonly %1) unnamed_addr #0 align 2 {
  %.not = icmp eq ptr %1, null
  br i1 %.not, label %3, label %5

3:                                                ; preds = %2
  %4 = load ptr, ptr @g_assert_poison, align 8
  store i8 88, ptr %4, align 1
  tail call void (ptr, i32, ptr, ptr, ...) @_Z15report_vm_errorPKciS0_S0_z(ptr noundef nonnull @.str, i32 noundef 163, ptr noundef nonnull @.str.4, ptr noundef nonnull @.str.5) #12
  unreachable

5:                                                ; preds = %2
  %6 = getelementptr inbounds i8, ptr %1, i64 840
  %7 = load i32, ptr %6, align 8
  %8 = icmp eq i32 %7, -1
  %9 = getelementptr inbounds i8, ptr %0, i64 56
  %10 = load ptr, ptr %9, align 8
  br i1 %8, label %11, label %24

11:                                               ; preds = %5
  %12 = load i32, ptr %10, align 4
  %13 = icmp sgt i32 %12, 0
  br i1 %13, label %14, label %_ZNK16MutableNUMASpace16lgrp_space_indexEi.exit.thread

14:                                               ; preds = %11
  %15 = load ptr, ptr %0, align 8
  %16 = getelementptr inbounds i8, ptr %15, i64 80
  %17 = load ptr, ptr %16, align 8
  %18 = tail call noundef i64 %17(ptr noundef nonnull align 8 dereferenceable(56) %0) #11
  %19 = shl i64 %18, 3
  %20 = load ptr, ptr %9, align 8
  %21 = load i32, ptr %20, align 4
  %22 = sext i32 %21 to i64
  %23 = udiv i64 %19, %22
  br label %_ZNK16MutableNUMASpace16lgrp_space_indexEi.exit.thread

24:                                               ; preds = %5
  %.val.i = load i32, ptr %10, align 8
  %25 = getelementptr i8, ptr %10, i64 8
  %.val1.i = load ptr, ptr %25, align 8
  %26 = icmp sgt i32 %.val.i, 0
  br i1 %26, label %.lr.ph.i.i, label %_ZNK16MutableNUMASpace16lgrp_space_indexEi.exit.thread

.lr.ph.i.i:                                       ; preds = %24
  %wide.trip.count.i.i = zext nneg i32 %.val.i to i64
  br label %27

27:                                               ; preds = %31, %.lr.ph.i.i
  %indvars.iv.i.i = phi i64 [ 0, %.lr.ph.i.i ], [ %indvars.iv.next.i.i, %31 ]
  %28 = getelementptr inbounds ptr, ptr %.val1.i, i64 %indvars.iv.i.i
  %29 = load ptr, ptr %28, align 8
  %.val6.i.i = load i32, ptr %29, align 8
  %30 = icmp eq i32 %.val6.i.i, %7
  br i1 %30, label %_ZNK16MutableNUMASpace16lgrp_space_indexEi.exit, label %31

31:                                               ; preds = %27
  %indvars.iv.next.i.i = add nuw nsw i64 %indvars.iv.i.i, 1
  %exitcond.not.i.i = icmp eq i64 %indvars.iv.next.i.i, %wide.trip.count.i.i
  br i1 %exitcond.not.i.i, label %_ZNK16MutableNUMASpace16lgrp_space_indexEi.exit.thread, label %27, !llvm.loop !13

_ZNK16MutableNUMASpace16lgrp_space_indexEi.exit:  ; preds = %27
  %sext = shl i64 %indvars.iv.i.i, 32
  %32 = ashr exact i64 %sext, 29
  %33 = getelementptr inbounds i8, ptr %.val1.i, i64 %32
  %34 = load ptr, ptr %33, align 8
  %35 = getelementptr inbounds i8, ptr %34, i64 8
  %36 = load ptr, ptr %35, align 8
  %37 = load ptr, ptr %36, align 8
  %38 = getelementptr inbounds i8, ptr %37, i64 80
  %39 = load ptr, ptr %38, align 8
  %40 = tail call noundef i64 %39(ptr noundef nonnull align 8 dereferenceable(56) %36) #11
  %41 = shl i64 %40, 3
  br label %_ZNK16MutableNUMASpace16lgrp_space_indexEi.exit.thread

_ZNK16MutableNUMASpace16lgrp_space_indexEi.exit.thread: ; preds = %31, %24, %11, %_ZNK16MutableNUMASpace16lgrp_space_indexEi.exit, %14
  %.0 = phi i64 [ %23, %14 ], [ %41, %_ZNK16MutableNUMASpace16lgrp_space_indexEi.exit ], [ 0, %11 ], [ 0, %24 ], [ 0, %31 ]
  ret i64 %.0
}